; Function Attrs: alwaysinline norecurse nounwind ssp uwtable
define internal void @"_ZN6open3d4core15ParallelForCPU_IZZZNS_1t8geometry6kernel5image5ToCPUERKNS0_6TensorERS6_ddENK3$_2clEvENKUlvE1_clEvEUllE_EEvRKNS0_6DeviceElRKT_.omp_outlined"(ptr noalias noundef readonly captures(none) %0, ptr noalias readnone captures(none) %1, ptr noundef nonnull readonly align 8 captures(none) dereferenceable(8) %2, ptr noundef nonnull readonly align 8 captures(none) dereferenceable(858) %3) #15 personality ptr @__gxx_personality_v0 {
  %5 = alloca i64, align 8
  %6 = alloca i64, align 8
  %7 = alloca i64, align 8
  %8 = alloca i32, align 4
  %9 = load i64, ptr %2, align 8, !tbaa !36
  %10 = icmp sgt i64 %9, 0
  br i1 %10, label %11, label %78

11:                                               ; preds = %4
  %12 = add nsw i64 %9, -1
  call void @llvm.lifetime.start.p0(i64 8, ptr nonnull %5) #16
  store i64 0, ptr %5, align 8, !tbaa !36
  call void @llvm.lifetime.start.p0(i64 8, ptr nonnull %6) #16
  store i64 %12, ptr %6, align 8, !tbaa !36
  call void @llvm.lifetime.start.p0(i64 8, ptr nonnull %7) #16
  store i64 1, ptr %7, align 8, !tbaa !36
  call void @llvm.lifetime.start.p0(i64 4, ptr nonnull %8) #16
  store i32 0, ptr %8, align 4, !tbaa !16
  %13 = load i32, ptr %0, align 4, !tbaa !16
  call void @__kmpc_for_static_init_8(ptr nonnull @1, i32 %13, i32 34, ptr nonnull %8, ptr nonnull %5, ptr nonnull %6, ptr nonnull %7, i64 1, i64 1)
  %14 = load i64, ptr %6, align 8, !tbaa !36
  %15 = call i64 @llvm.smin.i64(i64 %14, i64 %12)
  store i64 %15, ptr %6, align 8, !tbaa !36
  %16 = load i64, ptr %5, align 8, !tbaa !36
  %.not14 = icmp sgt i64 %16, %15
  br i1 %.not14, label %._crit_edge, label %.lr.ph

.lr.ph:                                           ; preds = %11
  %17 = getelementptr inbounds nuw i8, ptr %3, i64 16
  %18 = getelementptr inbounds nuw i8, ptr %3, i64 744
  %19 = getelementptr inbounds nuw i8, ptr %3, i64 832
  %20 = getelementptr inbounds nuw i8, ptr %3, i64 792
  %21 = getelementptr inbounds nuw i8, ptr %3, i64 80
  %22 = getelementptr inbounds nuw i8, ptr %3, i64 749
  %23 = getelementptr inbounds nuw i8, ptr %3, i64 600
  %24 = getelementptr inbounds nuw i8, ptr %3, i64 536
  %25 = getelementptr inbounds nuw i8, ptr %3, i64 848
  %26 = getelementptr inbounds nuw i8, ptr %3, i64 852
  %27 = getelementptr inbounds nuw i8, ptr %3, i64 856
  %28 = getelementptr inbounds nuw i8, ptr %3, i64 857
  br label %29

29:                                               ; preds = %.lr.ph, %.loopexit
  %.015 = phi i64 [ %16, %.lr.ph ], [ %76, %.loopexit ]
  %30 = load i64, ptr %3, align 8
  %.not.i.i = icmp sgt i64 %30, 0
  %31 = icmp sgt i64 %.015, -1
  call void @llvm.assume(i1 %31)
  br i1 %.not.i.i, label %32, label %_ZNK6open3d4core7Indexer11GetInputPtrIaEEPT_ll.exit.i

32:                                               ; preds = %29
  %33 = load i8, ptr %18, align 8, !tbaa !41, !range !297, !noundef !298
  %34 = trunc nuw i8 %33 to i1
  br i1 %34, label %_ZNK6open3d4core7Indexer11GetInputPtrIaEEPT_ll.exit.thread20.i, label %.preheader.i.i.i

.preheader.i.i.i:                                 ; preds = %32
  %35 = load i64, ptr %19, align 8, !tbaa !967
  %36 = icmp sgt i64 %35, 0
  br i1 %36, label %.lr.ph.i.i.i, label %_ZNK6open3d4core7Indexer11GetInputPtrIaEEPT_ll.exit.thread20.i

.lr.ph.i.i.i:                                     ; preds = %.preheader.i.i.i, %.lr.ph.i.i.i
  %.022.i.i.i = phi i64 [ %45, %.lr.ph.i.i.i ], [ 0, %.preheader.i.i.i ]
  %.01621.i.i.i = phi i64 [ %43, %.lr.ph.i.i.i ], [ 0, %.preheader.i.i.i ]
  %.01720.i.i.i = phi i64 [ %44, %.lr.ph.i.i.i ], [ %.015, %.preheader.i.i.i ]
  %37 = getelementptr inbounds nuw [5 x i64], ptr %20, i64 0, i64 %.022.i.i.i
  %38 = load i64, ptr %37, align 8, !tbaa !36
  %39 = sdiv i64 %.01720.i.i.i, %38
  %40 = getelementptr inbounds nuw [5 x i64], ptr %21, i64 0, i64 %.022.i.i.i
  %41 = load i64, ptr %40, align 8, !tbaa !36
  %42 = mul nsw i64 %41, %39
  %43 = add nsw i64 %42, %.01621.i.i.i
  %44 = srem i64 %.01720.i.i.i, %38
  %45 = add nuw nsw i64 %.022.i.i.i, 1
  %exitcond.not.i.i.i = icmp eq i64 %45, %35
  br i1 %exitcond.not.i.i.i, label %_ZNK6open3d4core7Indexer11GetInputPtrIaEEPT_ll.exit.thread20.i, label %.lr.ph.i.i.i, !llvm.loop !869

_ZNK6open3d4core7Indexer11GetInputPtrIaEEPT_ll.exit.thread20.i: ; preds = %.lr.ph.i.i.i, %.preheader.i.i.i, %32
  %.016.lcssa.i.sink.i.i = phi i64 [ %.015, %32 ], [ 0, %.preheader.i.i.i ], [ %43, %.lr.ph.i.i.i ]
  %46 = load ptr, ptr %17, align 8, !tbaa !968
  %47 = getelementptr inbounds i8, ptr %46, i64 %.016.lcssa.i.sink.i.i
  br label %_ZNK6open3d4core7Indexer11GetInputPtrIaEEPT_ll.exit.i

_ZNK6open3d4core7Indexer11GetInputPtrIaEEPT_ll.exit.i: ; preds = %29, %_ZNK6open3d4core7Indexer11GetInputPtrIaEEPT_ll.exit.thread20.i
  %.0.i22.i = phi ptr [ %47, %_ZNK6open3d4core7Indexer11GetInputPtrIaEEPT_ll.exit.thread20.i ], [ null, %29 ]
  %48 = load i8, ptr %22, align 1, !tbaa !41, !range !297, !noundef !298
  %49 = trunc nuw i8 %48 to i1
  br i1 %49, label %.loopexit, label %.preheader.i.i12.i

.preheader.i.i12.i:                               ; preds = %_ZNK6open3d4core7Indexer11GetInputPtrIaEEPT_ll.exit.i
  %50 = load i64, ptr %19, align 8, !tbaa !967
  %51 = icmp sgt i64 %50, 0
  br i1 %51, label %.lr.ph.i.i13.i, label %.loopexit

.lr.ph.i.i13.i:                                   ; preds = %.preheader.i.i12.i, %.lr.ph.i.i13.i
  %.022.i.i14.i = phi i64 [ %60, %.lr.ph.i.i13.i ], [ 0, %.preheader.i.i12.i ]
  %.01621.i.i15.i = phi i64 [ %58, %.lr.ph.i.i13.i ], [ 0, %.preheader.i.i12.i ]
  %.01720.i.i16.i = phi i64 [ %59, %.lr.ph.i.i13.i ], [ %.015, %.preheader.i.i12.i ]
  %52 = getelementptr inbounds nuw [5 x i64], ptr %20, i64 0, i64 %.022.i.i14.i
  %53 = load i64, ptr %52, align 8, !tbaa !36
  %54 = sdiv i64 %.01720.i.i16.i, %53
  %55 = getelementptr inbounds nuw [5 x i64], ptr %23, i64 0, i64 %.022.i.i14.i
  %56 = load i64, ptr %55, align 8, !tbaa !36
  %57 = mul nsw i64 %56, %54
  %58 = add nsw i64 %57, %.01621.i.i15.i
  %59 = srem i64 %.01720.i.i16.i, %53
  %60 = add nuw nsw i64 %.022.i.i14.i, 1
  %exitcond.not.i.i17.i = icmp eq i64 %60, %50
  br i1 %exitcond.not.i.i17.i, label %.loopexit, label %.lr.ph.i.i13.i, !llvm.loop !869

.loopexit:                                        ; preds = %.lr.ph.i.i13.i, %.preheader.i.i12.i, %_ZNK6open3d4core7Indexer11GetInputPtrIaEEPT_ll.exit.i
  %.sink26.i = phi i64 [ %.015, %_ZNK6open3d4core7Indexer11GetInputPtrIaEEPT_ll.exit.i ], [ 0, %.preheader.i.i12.i ], [ %58, %.lr.ph.i.i13.i ]
  %61 = load ptr, ptr %24, align 8, !tbaa !968
  %62 = getelementptr inbounds i8, ptr %61, i64 %.sink26.i
  %63 = load i8, ptr %.0.i22.i, align 1, !tbaa !15
  %64 = sitofp i8 %63 to float
  %65 = load float, ptr %25, align 8, !tbaa !94
  %66 = load float, ptr %26, align 4, !tbaa !96
  %67 = call float @llvm.fmuladd.f32(float %64, float %65, float %66)
  %68 = load i8, ptr %27, align 8, !tbaa !15
  %69 = sitofp i8 %68 to float
  %70 = fcmp olt float %67, %69
  %..i = select i1 %70, float %69, float %67
  %71 = load i8, ptr %28, align 1, !tbaa !15
  %72 = sitofp i8 %71 to float
  %73 = fcmp ogt float %..i, %72
  %74 = select i1 %73, float %72, float %..i
  %75 = fptosi float %74 to i8
  store i8 %75, ptr %62, align 1, !tbaa !15
  %76 = add nuw nsw i64 %.015, 1
  %77 = load i64, ptr %6, align 8, !tbaa !36
  %.not.not = icmp slt i64 %.015, %77
  br i1 %.not.not, label %29, label %._crit_edge

._crit_edge:                                      ; preds = %.loopexit, %11
  call void @__kmpc_for_static_fini(ptr nonnull @1, i32 %13)
  call void @llvm.lifetime.end.p0(i64 4, ptr nonnull %8) #16
  call void @llvm.lifetime.end.p0(i64 8, ptr nonnull %7) #16
  call void @llvm.lifetime.end.p0(i64 8, ptr nonnull %6) #16
  call void @llvm.lifetime.end.p0(i64 8, ptr nonnull %5) #16
  br label %78

78:                                               ; preds = %._crit_edge, %4
  ret void
}